
test.o:     file format elf32-m68k


Disassembly of section .text:

00000000 <setup_duart>:
   0:	207c 0011 0005 	moveal #1114117,%a0
   6:	10bc 0030      	moveb #48,%a0@
   a:	207c 0011 0005 	moveal #1114117,%a0
  10:	10bc 0020      	moveb #32,%a0@
  14:	207c 0011 0005 	moveal #1114117,%a0
  1a:	10bc 0010      	moveb #16,%a0@
  1e:	207c 0011 0009 	moveal #1114121,%a0
  24:	4210           	clrb %a0@
  26:	207c 0011 0003 	moveal #1114115,%a0
  2c:	10bc ffbb      	moveb #-69,%a0@
  30:	207c 0011 0001 	moveal #1114113,%a0
  36:	10bc ff93      	moveb #-109,%a0@
  3a:	207c 0011 0001 	moveal #1114113,%a0
  40:	10bc 0037      	moveb #55,%a0@
  44:	207c 0011 0005 	moveal #1114117,%a0
  4a:	10bc 0025      	moveb #37,%a0@
  4e:	4e71           	nop
  50:	4e75           	rts

00000052 <getch>:
  52:	4e71           	nop
  54:	207c 0011 0003 	moveal #1114115,%a0
  5a:	1010           	moveb %a0@,%d0
  5c:	4880           	extw %d0
  5e:	48c0           	extl %d0
  60:	7201           	moveq #1,%d1
  62:	c081           	andl %d1,%d0
  64:	4a80           	tstl %d0
  66:	67ec           	beqs 54 <getch+0x2>
  68:	207c 0011 0007 	moveal #1114119,%a0
  6e:	1010           	moveb %a0@,%d0
  70:	4e75           	rts

00000072 <putch>:
  72:	598f           	subql #4,%sp
  74:	202f 0008      	movel %sp@(8),%d0
  78:	1f40 0002      	moveb %d0,%sp@(2)
  7c:	4e71           	nop
  7e:	207c 0011 0003 	moveal #1114115,%a0
  84:	1010           	moveb %a0@,%d0
  86:	4880           	extw %d0
  88:	48c0           	extl %d0
  8a:	7204           	moveq #4,%d1
  8c:	c081           	andl %d1,%d0
  8e:	4a80           	tstl %d0
  90:	67ec           	beqs 7e <putch+0xc>
  92:	207c 0011 0007 	moveal #1114119,%a0
  98:	10af 0002      	moveb %sp@(2),%a0@
  9c:	4e71           	nop
  9e:	588f           	addql #4,%sp
  a0:	4e75           	rts

000000a2 <ascii>:
  a2:	598f           	subql #4,%sp
  a4:	7020           	moveq #32,%d0
  a6:	2e80           	movel %d0,%sp@
  a8:	6010           	bras ba <ascii+0x18>
  aa:	2017           	movel %sp@,%d0
  ac:	4880           	extw %d0
  ae:	3040           	moveaw %d0,%a0
  b0:	2f08           	movel %a0,%sp@-
  b2:	4eba ffbe      	jsr %pc@(72 <putch>)
  b6:	588f           	addql #4,%sp
  b8:	5297           	addql #1,%sp@
  ba:	707e           	moveq #126,%d0
  bc:	b097           	cmpl %sp@,%d0
  be:	64ea           	bccs aa <ascii+0x8>
  c0:	4e71           	nop
  c2:	588f           	addql #4,%sp
  c4:	4e75           	rts

000000c6 <main>:
  c6:	518f           	subql #8,%sp
  c8:	42af 0004      	clrl %sp@(4)
  cc:	6008           	bras d6 <main+0x10>
  ce:	4eba ffd2      	jsr %pc@(a2 <ascii>)
  d2:	52af 0004      	addql #1,%sp@(4)
  d6:	7009           	moveq #9,%d0
  d8:	b0af 0004      	cmpl %sp@(4),%d0
  dc:	64f0           	bccs ce <main+0x8>
  de:	4878 000a      	pea a <setup_duart+0xa>
  e2:	4eba ff8e      	jsr %pc@(72 <putch>)
  e6:	588f           	addql #4,%sp
  e8:	4eba ff68      	jsr %pc@(52 <getch>)
  ec:	1f40 0003      	moveb %d0,%sp@(3)
  f0:	102f 0003      	moveb %sp@(3),%d0
  f4:	4880           	extw %d0
  f6:	3040           	moveaw %d0,%a0
  f8:	2f08           	movel %a0,%sp@-
  fa:	4eba ff76      	jsr %pc@(72 <putch>)
  fe:	588f           	addql #4,%sp
 100:	60e6           	bras e8 <main+0x22>
